target datalayout = "e-m:e-p270:32:32-p271:32:32-p272:64:64-i64:64-i128:128-f80:128-n8:16:32:64-S128"
target triple = "x86_64-pc-linux-gnu"

@proto_register_evrc.ett = internal global [2 x ptr] [ptr @ett_evrc, ptr @ett_toc], align 16
@.str.42 = private unnamed_addr constant [29 x i8] c"Enhanced Variable Rate Codec\00", align 1
@.str.43 = private unnamed_addr constant [5 x i8] c"EVRC\00", align 1
@.str.44 = private unnamed_addr constant [5 x i8] c"evrc\00", align 1
@proto_evrc = internal global i32 0, align 4
@.str.45 = private unnamed_addr constant [31 x i8] c"Enhanced Variable Rate Codec B\00", align 1
@.str.46 = private unnamed_addr constant [7 x i8] c"EVRC-B\00", align 1
@.str.47 = private unnamed_addr constant [6 x i8] c"evrcb\00", align 1
@proto_evrcb = internal global i32 0, align 4
@.str.48 = private unnamed_addr constant [40 x i8] c"Enhanced Variable Rate Codec - Wideband\00", align 1
@.str.49 = private unnamed_addr constant [8 x i8] c"EVRC-WB\00", align 1
@.str.50 = private unnamed_addr constant [7 x i8] c"evrcwb\00", align 1
@proto_evrcwb = internal global i32 0, align 4
@.str.51 = private unnamed_addr constant [51 x i8] c"Enhanced Variable Rate Codec - Narrowband-Wideband\00", align 1
@.str.52 = private unnamed_addr constant [8 x i8] c"EVRC-NW\00", align 1
@.str.53 = private unnamed_addr constant [7 x i8] c"evrcnw\00", align 1
@proto_evrcnw = internal global i32 0, align 4
@.str.54 = private unnamed_addr constant [62 x i8] c"Enhanced Variable Rate Codec - Narrowband-Wideband plus 2kpbs\00", align 1
@.str.55 = private unnamed_addr constant [10 x i8] c"EVRC-NW2K\00", align 1
@.str.56 = private unnamed_addr constant [9 x i8] c"evrcnw2k\00", align 1
@proto_evrcnw2k = internal global i32 0, align 4
@.str.57 = private unnamed_addr constant [52 x i8] c"Enhanced Variable Rate Codec (Legacy Encapsulation)\00", align 1
@.str.58 = private unnamed_addr constant [14 x i8] c"EVRC (Legacy)\00", align 1
@.str.59 = private unnamed_addr constant [12 x i8] c"evrc_legacy\00", align 1
@proto_evrc_legacy = internal global i32 0, align 4
@evrc_handle = internal global ptr null, align 8
@evrcb_handle = internal global ptr null, align 8
@evrcwb_handle = internal global ptr null, align 8
@evrcnw_handle = internal global ptr null, align 8
@evrcnw2k_handle = internal global ptr null, align 8
@evrc_legacy_handle = internal global ptr null, align 8
@.str.60 = private unnamed_addr constant [13 x i8] c"legacy_pt_60\00", align 1
@.str.61 = private unnamed_addr constant [70 x i8] c"Add dissector for static payload type 60 as legacy EVRC (non-RFC3558)\00", align 1
@.str.62 = private unnamed_addr constant [81 x i8] c"Whether the EVRC dissector should process payload type 60 as legacy EVRC packets\00", align 1
@legacy_pt_60 = internal global i8 0, align 1

; Function Attrs: null_pointer_is_valid sspstrong uwtable
define hidden void @proto_register_evrc() #0 {
  %1 = alloca ptr, align 8
  %2 = alloca ptr, align 8
  call void @llvm.lifetime.start.p0(i64 8, ptr %1) #7
  call void @llvm.lifetime.start.p0(i64 8, ptr %2) #7
  %3 = call i32 @proto_register_protocol(ptr noundef @.str.42, ptr noundef @.str.43, ptr noundef @.str.44)
  store i32 %3, ptr @proto_evrc, align 4
  %4 = load i32, ptr @proto_evrc, align 4
  %5 = call i32 @proto_register_protocol_in_name_only(ptr noundef @.str.45, ptr noundef @.str.46, ptr noundef @.str.47, i32 noundef %4, i32 noundef 1)
  store i32 %5, ptr @proto_evrcb, align 4
  %6 = load i32, ptr @proto_evrc, align 4
  %7 = call i32 @proto_register_protocol_in_name_only(ptr noundef @.str.48, ptr noundef @.str.49, ptr noundef @.str.50, i32 noundef %6, i32 noundef 1)
  store i32 %7, ptr @proto_evrcwb, align 4
  %8 = load i32, ptr @proto_evrc, align 4
  %9 = call i32 @proto_register_protocol_in_name_only(ptr noundef @.str.51, ptr noundef @.str.52, ptr noundef @.str.53, i32 noundef %8, i32 noundef 1)
  store i32 %9, ptr @proto_evrcnw, align 4
  %10 = load i32, ptr @proto_evrc, align 4
  %11 = call i32 @proto_register_protocol_in_name_only(ptr noundef @.str.54, ptr noundef @.str.55, ptr noundef @.str.56, i32 noundef %10, i32 noundef 1)
  store i32 %11, ptr @proto_evrcnw2k, align 4
  %12 = load i32, ptr @proto_evrc, align 4
  %13 = call i32 @proto_register_protocol_in_name_only(ptr noundef @.str.57, ptr noundef @.str.58, ptr noundef @.str.59, i32 noundef %12, i32 noundef 1)
  store i32 %13, ptr @proto_evrc_legacy, align 4
  %14 = load i32, ptr @proto_evrc, align 4
  call void @proto_register_field_array(i32 noundef %14, ptr noundef @proto_register_evrc.hf, i32 noundef 20)
  call void @proto_register_subtree_array(ptr noundef @proto_register_evrc.ett, i32 noundef 2)
  %15 = load i32, ptr @proto_evrc, align 4
  %16 = call ptr @register_dissector(ptr noundef @.str.44, ptr noundef @dissect_evrc, i32 noundef %15)
  store ptr %16, ptr @evrc_handle, align 8
  %17 = load i32, ptr @proto_evrcb, align 4
  %18 = call ptr @register_dissector(ptr noundef @.str.47, ptr noundef @dissect_evrcb, i32 noundef %17)
  store ptr %18, ptr @evrcb_handle, align 8
  %19 = load i32, ptr @proto_evrcwb, align 4
  %20 = call ptr @register_dissector(ptr noundef @.str.50, ptr noundef @dissect_evrcwb, i32 noundef %19)
  store ptr %20, ptr @evrcwb_handle, align 8
  %21 = load i32, ptr @proto_evrcnw, align 4
  %22 = call ptr @register_dissector(ptr noundef @.str.53, ptr noundef @dissect_evrcnw, i32 noundef %21)
  store ptr %22, ptr @evrcnw_handle, align 8
  %23 = load i32, ptr @proto_evrcnw2k, align 4
  %24 = call ptr @register_dissector(ptr noundef @.str.56, ptr noundef @dissect_evrcnw2k, i32 noundef %23)
  store ptr %24, ptr @evrcnw2k_handle, align 8
  %25 = load i32, ptr @proto_evrc_legacy, align 4
  %26 = call ptr @register_dissector(ptr noundef @.str.59, ptr noundef @dissect_evrc_legacy, i32 noundef %25)
  store ptr %26, ptr @evrc_legacy_handle, align 8
  %27 = load i32, ptr @proto_evrc, align 4
  %28 = call ptr @expert_register_protocol(i32 noundef %27)
  store ptr %28, ptr %2, align 8
  %29 = load ptr, ptr %2, align 8
  call void @expert_register_field_array(ptr noundef %29, ptr noundef @proto_register_evrc.ei, i32 noundef 1)
  %30 = load i32, ptr @proto_evrc, align 4
  %31 = call ptr @prefs_register_protocol(i32 noundef %30, ptr noundef @proto_reg_handoff_evrc)
  store ptr %31, ptr %1, align 8
  %32 = load ptr, ptr %1, align 8
  call void @prefs_register_bool_preference(ptr noundef %32, ptr noundef @.str.60, ptr noundef @.str.61, ptr noundef @.str.62, ptr noundef @legacy_pt_60)
  call void @llvm.lifetime.end.p0(i64 8, ptr %2) #7
  call void @llvm.lifetime.end.p0(i64 8, ptr %1) #7
  ret void
}