; Function Attrs: null_pointer_is_valid sspstrong uwtable
define hidden void @proto_register_evrc() local_unnamed_addr #0 {
  %1 = tail call i32 @proto_register_protocol(ptr noundef nonnull @.str.42, ptr noundef nonnull @.str.43, ptr noundef nonnull @.str.44)
  store i32 %1, ptr @proto_evrc, align 4
  %2 = tail call i32 @proto_register_protocol_in_name_only(ptr noundef nonnull @.str.45, ptr noundef nonnull @.str.46, ptr noundef nonnull @.str.47, i32 noundef %1, i32 noundef 1)
  store i32 %2, ptr @proto_evrcb, align 4
  %3 = load i32, ptr @proto_evrc, align 4
  %4 = tail call i32 @proto_register_protocol_in_name_only(ptr noundef nonnull @.str.48, ptr noundef nonnull @.str.49, ptr noundef nonnull @.str.50, i32 noundef %3, i32 noundef 1)
  store i32 %4, ptr @proto_evrcwb, align 4
  %5 = load i32, ptr @proto_evrc, align 4
  %6 = tail call i32 @proto_register_protocol_in_name_only(ptr noundef nonnull @.str.51, ptr noundef nonnull @.str.52, ptr noundef nonnull @.str.53, i32 noundef %5, i32 noundef 1)
  store i32 %6, ptr @proto_evrcnw, align 4
  %7 = load i32, ptr @proto_evrc, align 4
  %8 = tail call i32 @proto_register_protocol_in_name_only(ptr noundef nonnull @.str.54, ptr noundef nonnull @.str.55, ptr noundef nonnull @.str.56, i32 noundef %7, i32 noundef 1)
  store i32 %8, ptr @proto_evrcnw2k, align 4
  %9 = load i32, ptr @proto_evrc, align 4
  %10 = tail call i32 @proto_register_protocol_in_name_only(ptr noundef nonnull @.str.57, ptr noundef nonnull @.str.58, ptr noundef nonnull @.str.59, i32 noundef %9, i32 noundef 1)
  store i32 %10, ptr @proto_evrc_legacy, align 4
  %11 = load i32, ptr @proto_evrc, align 4
  tail call void @proto_register_field_array(i32 noundef %11, ptr noundef nonnull @proto_register_evrc.hf, i32 noundef 20)
  tail call void @proto_register_subtree_array(ptr noundef nonnull @proto_register_evrc.ett, i32 noundef 2)
  %12 = load i32, ptr @proto_evrc, align 4
  %13 = tail call ptr @register_dissector(ptr noundef nonnull @.str.44, ptr noundef nonnull @dissect_evrc, i32 noundef %12)
  store ptr %13, ptr @evrc_handle, align 8
  %14 = load i32, ptr @proto_evrcb, align 4
  %15 = tail call ptr @register_dissector(ptr noundef nonnull @.str.47, ptr noundef nonnull @dissect_evrcb, i32 noundef %14)
  store ptr %15, ptr @evrcb_handle, align 8
  %16 = load i32, ptr @proto_evrcwb, align 4
  %17 = tail call ptr @register_dissector(ptr noundef nonnull @.str.50, ptr noundef nonnull @dissect_evrcwb, i32 noundef %16)
  store ptr %17, ptr @evrcwb_handle, align 8
  %18 = load i32, ptr @proto_evrcnw, align 4
  %19 = tail call ptr @register_dissector(ptr noundef nonnull @.str.53, ptr noundef nonnull @dissect_evrcnw, i32 noundef %18)
  store ptr %19, ptr @evrcnw_handle, align 8
  %20 = load i32, ptr @proto_evrcnw2k, align 4
  %21 = tail call ptr @register_dissector(ptr noundef nonnull @.str.56, ptr noundef nonnull @dissect_evrcnw2k, i32 noundef %20)
  store ptr %21, ptr @evrcnw2k_handle, align 8
  %22 = load i32, ptr @proto_evrc_legacy, align 4
  %23 = tail call ptr @register_dissector(ptr noundef nonnull @.str.59, ptr noundef nonnull @dissect_evrc_legacy, i32 noundef %22)
  store ptr %23, ptr @evrc_legacy_handle, align 8
  %24 = load i32, ptr @proto_evrc, align 4
  %25 = tail call ptr @expert_register_protocol(i32 noundef %24)
  tail call void @expert_register_field_array(ptr noundef %25, ptr noundef nonnull @proto_register_evrc.ei, i32 noundef 1)
  %26 = load i32, ptr @proto_evrc, align 4
  %27 = tail call ptr @prefs_register_protocol(i32 noundef %26, ptr noundef nonnull @proto_reg_handoff_evrc)
  tail call void @prefs_register_bool_preference(ptr noundef %27, ptr noundef nonnull @.str.60, ptr noundef nonnull @.str.61, ptr noundef nonnull @.str.62, ptr noundef nonnull @legacy_pt_60)
  ret void
}